target datalayout = "e-m:e-p270:32:32-p271:32:32-p272:64:64-i64:64-i128:128-f80:128-n8:16:32:64-S128"
target triple = "x86_64-pc-linux-gnu"

@.str.32 = private unnamed_addr constant [27 x i8] c"Palette size %zu is wrong\0A\00", align 1

; Function Attrs: nounwind uwtable
define i32 @ff_copy_palette(ptr noundef %0, ptr noundef %1, ptr noundef %2) #0 {
  %4 = alloca i32, align 4
  %5 = alloca ptr, align 8
  %6 = alloca ptr, align 8
  %7 = alloca ptr, align 8
  %8 = alloca i64, align 8
  %9 = alloca ptr, align 8
  %10 = alloca i32, align 4
  store ptr %0, ptr %5, align 8, !tbaa !142
  store ptr %1, ptr %6, align 8, !tbaa !9
  store ptr %2, ptr %7, align 8, !tbaa !142
  call void @llvm.lifetime.start.p0(i64 8, ptr %8) #11
  call void @llvm.lifetime.start.p0(i64 8, ptr %9) #11
  %11 = load ptr, ptr %6, align 8, !tbaa !9
  %12 = call ptr @av_packet_get_side_data(ptr noundef %11, i32 noundef 0, ptr noundef %8)
  store ptr %12, ptr %9, align 8, !tbaa !142
  %13 = load ptr, ptr %9, align 8, !tbaa !142
  %14 = icmp ne ptr %13, null
  br i1 %14, label %15, label %21

15:                                               ; preds = %3
  %16 = load i64, ptr %8, align 8, !tbaa !69
  %17 = icmp eq i64 %16, 1024
  br i1 %17, label %18, label %21

18:                                               ; preds = %15
  %19 = load ptr, ptr %5, align 8, !tbaa !142
  %20 = load ptr, ptr %9, align 8, !tbaa !142
  call void @llvm.memcpy.p0.p0.i64(ptr align 1 %19, ptr align 1 %20, i64 1024, i1 false)
  store i32 1, ptr %4, align 4
  store i32 1, ptr %10, align 4
  br label %29

21:                                               ; preds = %15, %3
  %22 = load ptr, ptr %9, align 8, !tbaa !142
  %23 = icmp ne ptr %22, null
  br i1 %23, label %24, label %27

24:                                               ; preds = %21
  %25 = load ptr, ptr %7, align 8, !tbaa !142
  %26 = load i64, ptr %8, align 8, !tbaa !69
  call void (ptr, i32, ptr, ...) @av_log(ptr noundef %25, i32 noundef 16, ptr noundef @.str.32, i64 noundef %26)
  br label %27

27:                                               ; preds = %24, %21
  br label %28

28:                                               ; preds = %27
  store i32 0, ptr %4, align 4
  store i32 1, ptr %10, align 4
  br label %29

29:                                               ; preds = %28, %18
  call void @llvm.lifetime.end.p0(i64 8, ptr %9) #11
  call void @llvm.lifetime.end.p0(i64 8, ptr %8) #11
  %30 = load i32, ptr %4, align 4
  ret i32 %30
}