; Function Attrs: nounwind uwtable
define range(i32 0, 2) i32 @ff_copy_palette(ptr noundef writeonly captures(none) %0, ptr noundef %1, ptr noundef %2) local_unnamed_addr #0 {
  %4 = alloca i64, align 8
  call void @llvm.lifetime.start.p0(i64 8, ptr nonnull %4) #10
  %5 = call ptr @av_packet_get_side_data(ptr noundef %1, i32 noundef 0, ptr noundef nonnull %4) #10
  %6 = icmp ne ptr %5, null
  %7 = load i64, ptr %4, align 8
  %8 = icmp eq i64 %7, 1024
  %or.cond = select i1 %6, i1 %8, i1 false
  br i1 %or.cond, label %9, label %10

9:                                                ; preds = %3
  call void @llvm.memcpy.p0.p0.i64(ptr noundef nonnull align 1 dereferenceable(1024) %0, ptr noundef nonnull align 1 dereferenceable(1024) %5, i64 1024, i1 false)
  br label %12

10:                                               ; preds = %3
  br i1 %6, label %11, label %12

11:                                               ; preds = %10
  call void (ptr, i32, ptr, ...) @av_log(ptr noundef %2, i32 noundef 16, ptr noundef nonnull @.str.32, i64 noundef %7) #10
  br label %12

12:                                               ; preds = %11, %10, %9
  %.0 = phi i32 [ 1, %9 ], [ 0, %10 ], [ 0, %11 ]
  call void @llvm.lifetime.end.p0(i64 8, ptr nonnull %4) #10
  ret i32 %.0
}